target datalayout = "e-m:e-p270:32:32-p271:32:32-p272:64:64-i64:64-i128:128-f80:128-n8:16:32:64-S128"
target triple = "x86_64-pc-linux-gnu"

%struct._Node = type { %union.anon }
%union.anon = type { %struct.StrNode }
%struct.StrNode = type { %struct.NodeBase, ptr, ptr, i32, i32, [24 x i8] }
%struct.NodeBase = type { i32 }
%struct.QtfrNode = type { %struct.NodeBase, i32, ptr, i32, i32, i32, i32, ptr, ptr, i32 }

; Function Attrs: nounwind sspstrong uwtable
define internal i32 @popular_quantifier_num(ptr noundef %0) #0 {
  %2 = alloca i32, align 4
  %3 = alloca ptr, align 8
  store ptr %0, ptr %3, align 8, !tbaa !12
  %4 = load ptr, ptr %3, align 8, !tbaa !12
  %5 = getelementptr inbounds nuw %struct.QtfrNode, ptr %4, i32 0, i32 5
  %6 = load i32, ptr %5, align 8, !tbaa !91
  %7 = icmp ne i32 %6, 0
  br i1 %7, label %8, label %41

8:                                                ; preds = %1
  %9 = load ptr, ptr %3, align 8, !tbaa !12
  %10 = getelementptr inbounds nuw %struct.QtfrNode, ptr %9, i32 0, i32 3
  %11 = load i32, ptr %10, align 8, !tbaa !89
  %12 = icmp eq i32 %11, 0
  br i1 %12, label %13, label %27

13:                                               ; preds = %8
  %14 = load ptr, ptr %3, align 8, !tbaa !12
  %15 = getelementptr inbounds nuw %struct.QtfrNode, ptr %14, i32 0, i32 4
  %16 = load i32, ptr %15, align 4, !tbaa !90
  %17 = icmp eq i32 %16, 1
  br i1 %17, label %18, label %19

18:                                               ; preds = %13
  store i32 0, ptr %2, align 4
  br label %75

19:                                               ; preds = %13
  %20 = load ptr, ptr %3, align 8, !tbaa !12
  %21 = getelementptr inbounds nuw %struct.QtfrNode, ptr %20, i32 0, i32 4
  %22 = load i32, ptr %21, align 4, !tbaa !90
  %23 = icmp eq i32 %22, -1
  br i1 %23, label %24, label %25

24:                                               ; preds = %19
  store i32 1, ptr %2, align 4
  br label %75

25:                                               ; preds = %19
  br label %26

26:                                               ; preds = %25
  br label %40

27:                                               ; preds = %8
  %28 = load ptr, ptr %3, align 8, !tbaa !12
  %29 = getelementptr inbounds nuw %struct.QtfrNode, ptr %28, i32 0, i32 3
  %30 = load i32, ptr %29, align 8, !tbaa !89
  %31 = icmp eq i32 %30, 1
  br i1 %31, label %32, label %39

32:                                               ; preds = %27
  %33 = load ptr, ptr %3, align 8, !tbaa !12
  %34 = getelementptr inbounds nuw %struct.QtfrNode, ptr %33, i32 0, i32 4
  %35 = load i32, ptr %34, align 4, !tbaa !90
  %36 = icmp eq i32 %35, -1
  br i1 %36, label %37, label %38

37:                                               ; preds = %32
  store i32 2, ptr %2, align 4
  br label %75

38:                                               ; preds = %32
  br label %39

39:                                               ; preds = %38, %27
  br label %40

40:                                               ; preds = %39, %26
  br label %74

41:                                               ; preds = %1
  %42 = load ptr, ptr %3, align 8, !tbaa !12
  %43 = getelementptr inbounds nuw %struct.QtfrNode, ptr %42, i32 0, i32 3
  %44 = load i32, ptr %43, align 8, !tbaa !89
  %45 = icmp eq i32 %44, 0
  br i1 %45, label %46, label %60

46:                                               ; preds = %41
  %47 = load ptr, ptr %3, align 8, !tbaa !12
  %48 = getelementptr inbounds nuw %struct.QtfrNode, ptr %47, i32 0, i32 4
  %49 = load i32, ptr %48, align 4, !tbaa !90
  %50 = icmp eq i32 %49, 1
  br i1 %50, label %51, label %52

51:                                               ; preds = %46
  store i32 3, ptr %2, align 4
  br label %75

52:                                               ; preds = %46
  %53 = load ptr, ptr %3, align 8, !tbaa !12
  %54 = getelementptr inbounds nuw %struct.QtfrNode, ptr %53, i32 0, i32 4
  %55 = load i32, ptr %54, align 4, !tbaa !90
  %56 = icmp eq i32 %55, -1
  br i1 %56, label %57, label %58

57:                                               ; preds = %52
  store i32 4, ptr %2, align 4
  br label %75

58:                                               ; preds = %52
  br label %59

59:                                               ; preds = %58
  br label %73

60:                                               ; preds = %41
  %61 = load ptr, ptr %3, align 8, !tbaa !12
  %62 = getelementptr inbounds nuw %struct.QtfrNode, ptr %61, i32 0, i32 3
  %63 = load i32, ptr %62, align 8, !tbaa !89
  %64 = icmp eq i32 %63, 1
  br i1 %64, label %65, label %72

65:                                               ; preds = %60
  %66 = load ptr, ptr %3, align 8, !tbaa !12
  %67 = getelementptr inbounds nuw %struct.QtfrNode, ptr %66, i32 0, i32 4
  %68 = load i32, ptr %67, align 4, !tbaa !90
  %69 = icmp eq i32 %68, -1
  br i1 %69, label %70, label %71

70:                                               ; preds = %65
  store i32 5, ptr %2, align 4
  br label %75

71:                                               ; preds = %65
  br label %72

72:                                               ; preds = %71, %60
  br label %73

73:                                               ; preds = %72, %59
  br label %74

74:                                               ; preds = %73, %40
  store i32 -1, ptr %2, align 4
  br label %75

75:                                               ; preds = %74, %70, %57, %51, %37, %24, %18
  %76 = load i32, ptr %2, align 4
  ret i32 %76
}

; Function Attrs: nounwind sspstrong uwtable
define dso_local void @onig_reduce_nested_quantifier(ptr noundef %0, ptr noundef %1) #0 {
  %3 = alloca ptr, align 8
  %4 = alloca ptr, align 8
  %5 = alloca i32, align 4
  %6 = alloca i32, align 4
  %7 = alloca ptr, align 8
  %8 = alloca ptr, align 8
  %9 = alloca i32, align 4
  store ptr %0, ptr %3, align 8, !tbaa !68
  store ptr %1, ptr %4, align 8, !tbaa !68
  call void @llvm.lifetime.start.p0(i64 4, ptr %5) #13
  call void @llvm.lifetime.start.p0(i64 4, ptr %6) #13
  call void @llvm.lifetime.start.p0(i64 8, ptr %7) #13
  call void @llvm.lifetime.start.p0(i64 8, ptr %8) #13
  %10 = load ptr, ptr %3, align 8, !tbaa !68
  %11 = getelementptr inbounds nuw %struct._Node, ptr %10, i32 0, i32 0
  store ptr %11, ptr %7, align 8, !tbaa !12
  %12 = load ptr, ptr %4, align 8, !tbaa !68
  %13 = getelementptr inbounds nuw %struct._Node, ptr %12, i32 0, i32 0
  store ptr %13, ptr %8, align 8, !tbaa !12
  %14 = load ptr, ptr %7, align 8, !tbaa !12
  %15 = call i32 @popular_quantifier_num(ptr noundef %14)
  store i32 %15, ptr %5, align 4, !tbaa !13
  %16 = load ptr, ptr %8, align 8, !tbaa !12
  %17 = call i32 @popular_quantifier_num(ptr noundef %16)
  store i32 %17, ptr %6, align 4, !tbaa !13
  %18 = load i32, ptr %5, align 4, !tbaa !13
  %19 = icmp slt i32 %18, 0
  br i1 %19, label %23, label %20

20:                                               ; preds = %2
  %21 = load i32, ptr %6, align 4, !tbaa !13
  %22 = icmp slt i32 %21, 0
  br i1 %22, label %23, label %24

23:                                               ; preds = %20, %2
  store i32 1, ptr %9, align 4
  br label %95

24:                                               ; preds = %20
  %25 = load i32, ptr %6, align 4, !tbaa !13
  %26 = sext i32 %25 to i64
  %27 = getelementptr [6 x [6 x i32]], ptr @ReduceTypeTable, i64 0, i64 %26
  %28 = load i32, ptr %5, align 4, !tbaa !13
  %29 = sext i32 %28 to i64
  %30 = getelementptr [6 x i32], ptr %27, i64 0, i64 %29
  %31 = load i32, ptr %30, align 4, !tbaa !13
  switch i32 %31, label %91 [
    i32 1, label %32
    i32 2, label %35
    i32 3, label %47
    i32 4, label %59
    i32 5, label %71
    i32 0, label %87
  ]

32:                                               ; preds = %24
  %33 = load ptr, ptr %3, align 8, !tbaa !68
  %34 = load ptr, ptr %4, align 8, !tbaa !68
  call void @llvm.memcpy.p0.p0.i64(ptr align 8 %33, ptr align 8 %34, i64 56, i1 false), !tbaa.struct !86
  br label %91

35:                                               ; preds = %24
  %36 = load ptr, ptr %8, align 8, !tbaa !12
  %37 = getelementptr inbounds nuw %struct.QtfrNode, ptr %36, i32 0, i32 2
  %38 = load ptr, ptr %37, align 8, !tbaa !87
  %39 = load ptr, ptr %7, align 8, !tbaa !12
  %40 = getelementptr inbounds nuw %struct.QtfrNode, ptr %39, i32 0, i32 2
  store ptr %38, ptr %40, align 8, !tbaa !87
  %41 = load ptr, ptr %7, align 8, !tbaa !12
  %42 = getelementptr inbounds nuw %struct.QtfrNode, ptr %41, i32 0, i32 3
  store i32 0, ptr %42, align 8, !tbaa !89
  %43 = load ptr, ptr %7, align 8, !tbaa !12
  %44 = getelementptr inbounds nuw %struct.QtfrNode, ptr %43, i32 0, i32 4
  store i32 -1, ptr %44, align 4, !tbaa !90
  %45 = load ptr, ptr %7, align 8, !tbaa !12
  %46 = getelementptr inbounds nuw %struct.QtfrNode, ptr %45, i32 0, i32 5
  store i32 1, ptr %46, align 8, !tbaa !91
  br label %91

47:                                               ; preds = %24
  %48 = load ptr, ptr %8, align 8, !tbaa !12
  %49 = getelementptr inbounds nuw %struct.QtfrNode, ptr %48, i32 0, i32 2
  %50 = load ptr, ptr %49, align 8, !tbaa !87
  %51 = load ptr, ptr %7, align 8, !tbaa !12
  %52 = getelementptr inbounds nuw %struct.QtfrNode, ptr %51, i32 0, i32 2
  store ptr %50, ptr %52, align 8, !tbaa !87
  %53 = load ptr, ptr %7, align 8, !tbaa !12
  %54 = getelementptr inbounds nuw %struct.QtfrNode, ptr %53, i32 0, i32 3
  store i32 0, ptr %54, align 8, !tbaa !89
  %55 = load ptr, ptr %7, align 8, !tbaa !12
  %56 = getelementptr inbounds nuw %struct.QtfrNode, ptr %55, i32 0, i32 4
  store i32 -1, ptr %56, align 4, !tbaa !90
  %57 = load ptr, ptr %7, align 8, !tbaa !12
  %58 = getelementptr inbounds nuw %struct.QtfrNode, ptr %57, i32 0, i32 5
  store i32 0, ptr %58, align 8, !tbaa !91
  br label %91

59:                                               ; preds = %24
  %60 = load ptr, ptr %8, align 8, !tbaa !12
  %61 = getelementptr inbounds nuw %struct.QtfrNode, ptr %60, i32 0, i32 2
  %62 = load ptr, ptr %61, align 8, !tbaa !87
  %63 = load ptr, ptr %7, align 8, !tbaa !12
  %64 = getelementptr inbounds nuw %struct.QtfrNode, ptr %63, i32 0, i32 2
  store ptr %62, ptr %64, align 8, !tbaa !87
  %65 = load ptr, ptr %7, align 8, !tbaa !12
  %66 = getelementptr inbounds nuw %struct.QtfrNode, ptr %65, i32 0, i32 3
  store i32 0, ptr %66, align 8, !tbaa !89
  %67 = load ptr, ptr %7, align 8, !tbaa !12
  %68 = getelementptr inbounds nuw %struct.QtfrNode, ptr %67, i32 0, i32 4
  store i32 1, ptr %68, align 4, !tbaa !90
  %69 = load ptr, ptr %7, align 8, !tbaa !12
  %70 = getelementptr inbounds nuw %struct.QtfrNode, ptr %69, i32 0, i32 5
  store i32 0, ptr %70, align 8, !tbaa !91
  br label %91

71:                                               ; preds = %24
  %72 = load ptr, ptr %4, align 8, !tbaa !68
  %73 = load ptr, ptr %7, align 8, !tbaa !12
  %74 = getelementptr inbounds nuw %struct.QtfrNode, ptr %73, i32 0, i32 2
  store ptr %72, ptr %74, align 8, !tbaa !87
  %75 = load ptr, ptr %7, align 8, !tbaa !12
  %76 = getelementptr inbounds nuw %struct.QtfrNode, ptr %75, i32 0, i32 3
  store i32 0, ptr %76, align 8, !tbaa !89
  %77 = load ptr, ptr %7, align 8, !tbaa !12
  %78 = getelementptr inbounds nuw %struct.QtfrNode, ptr %77, i32 0, i32 4
  store i32 1, ptr %78, align 4, !tbaa !90
  %79 = load ptr, ptr %7, align 8, !tbaa !12
  %80 = getelementptr inbounds nuw %struct.QtfrNode, ptr %79, i32 0, i32 5
  store i32 0, ptr %80, align 8, !tbaa !91
  %81 = load ptr, ptr %8, align 8, !tbaa !12
  %82 = getelementptr inbounds nuw %struct.QtfrNode, ptr %81, i32 0, i32 3
  store i32 1, ptr %82, align 8, !tbaa !89
  %83 = load ptr, ptr %8, align 8, !tbaa !12
  %84 = getelementptr inbounds nuw %struct.QtfrNode, ptr %83, i32 0, i32 4
  store i32 -1, ptr %84, align 4, !tbaa !90
  %85 = load ptr, ptr %8, align 8, !tbaa !12
  %86 = getelementptr inbounds nuw %struct.QtfrNode, ptr %85, i32 0, i32 5
  store i32 1, ptr %86, align 8, !tbaa !91
  store i32 1, ptr %9, align 4
  br label %95

87:                                               ; preds = %24
  %88 = load ptr, ptr %4, align 8, !tbaa !68
  %89 = load ptr, ptr %7, align 8, !tbaa !12
  %90 = getelementptr inbounds nuw %struct.QtfrNode, ptr %89, i32 0, i32 2
  store ptr %88, ptr %90, align 8, !tbaa !87
  store i32 1, ptr %9, align 4
  br label %95

91:                                               ; preds = %24, %59, %47, %35, %32
  %92 = load ptr, ptr %8, align 8, !tbaa !12
  %93 = getelementptr inbounds nuw %struct.QtfrNode, ptr %92, i32 0, i32 2
  store ptr null, ptr %93, align 8, !tbaa !87
  %94 = load ptr, ptr %4, align 8, !tbaa !68
  call void @onig_node_free(ptr noundef %94)
  store i32 0, ptr %9, align 4
  br label %95

95:                                               ; preds = %91, %87, %71, %23
  call void @llvm.lifetime.end.p0(i64 8, ptr %8) #13
  call void @llvm.lifetime.end.p0(i64 8, ptr %7) #13
  call void @llvm.lifetime.end.p0(i64 4, ptr %6) #13
  call void @llvm.lifetime.end.p0(i64 4, ptr %5) #13
  %96 = load i32, ptr %9, align 4
  switch i32 %96, label %98 [
    i32 0, label %97
    i32 1, label %97
  ]

97:                                               ; preds = %95, %95
  ret void

98:                                               ; preds = %95
  unreachable
}