; Function Attrs: nounwind sspstrong uwtable
define dso_local void @onig_reduce_nested_quantifier(ptr noundef captures(none) %0, ptr noundef %1) local_unnamed_addr #5 {
  %3 = getelementptr inbounds nuw i8, ptr %0, i64 24
  %4 = load i32, ptr %3, align 8, !tbaa !72
  %.not.i = icmp eq i32 %4, 0
  %5 = getelementptr inbounds nuw i8, ptr %0, i64 16
  %6 = load i32, ptr %5, align 8, !tbaa !75
  br i1 %.not.i, label %15, label %7

7:                                                ; preds = %2
  switch i32 %6, label %23 [
    i32 0, label %8
    i32 1, label %11
  ]

8:                                                ; preds = %7
  %9 = getelementptr inbounds nuw i8, ptr %0, i64 20
  %10 = load i32, ptr %9, align 4, !tbaa !76
  %switch.selectcmp.i = icmp eq i32 %10, -1
  %switch.select.i = select i1 %switch.selectcmp.i, i32 1, i32 -1
  %switch.selectcmp15.i = icmp eq i32 %10, 1
  %switch.select16.i = select i1 %switch.selectcmp15.i, i32 0, i32 %switch.select.i
  br label %popular_quantifier_num.exit

11:                                               ; preds = %7
  %12 = getelementptr inbounds nuw i8, ptr %0, i64 20
  %13 = load i32, ptr %12, align 4, !tbaa !76
  %14 = icmp eq i32 %13, -1
  br i1 %14, label %popular_quantifier_num.exit, label %23

15:                                               ; preds = %2
  switch i32 %6, label %23 [
    i32 0, label %16
    i32 1, label %19
  ]

16:                                               ; preds = %15
  %17 = getelementptr inbounds nuw i8, ptr %0, i64 20
  %18 = load i32, ptr %17, align 4, !tbaa !76
  %switch.selectcmp17.i = icmp eq i32 %18, -1
  %switch.select18.i = select i1 %switch.selectcmp17.i, i32 4, i32 -1
  %switch.selectcmp19.i = icmp eq i32 %18, 1
  %switch.select20.i = select i1 %switch.selectcmp19.i, i32 3, i32 %switch.select18.i
  br label %popular_quantifier_num.exit

19:                                               ; preds = %15
  %20 = getelementptr inbounds nuw i8, ptr %0, i64 20
  %21 = load i32, ptr %20, align 4, !tbaa !76
  %22 = icmp eq i32 %21, -1
  br i1 %22, label %popular_quantifier_num.exit, label %23

23:                                               ; preds = %19, %15, %11, %7
  br label %popular_quantifier_num.exit

popular_quantifier_num.exit:                      ; preds = %8, %11, %16, %19, %23
  %.0.i = phi i32 [ -1, %23 ], [ 2, %11 ], [ 5, %19 ], [ %switch.select16.i, %8 ], [ %switch.select20.i, %16 ]
  %24 = getelementptr inbounds nuw i8, ptr %1, i64 24
  %25 = load i32, ptr %24, align 8, !tbaa !72
  %.not.i38 = icmp eq i32 %25, 0
  %26 = getelementptr inbounds nuw i8, ptr %1, i64 16
  %27 = load i32, ptr %26, align 8, !tbaa !75
  br i1 %.not.i38, label %33, label %28

28:                                               ; preds = %popular_quantifier_num.exit
  switch i32 %27, label %popular_quantifier_num.exit48.thread [
    i32 0, label %popular_quantifier_num.exit48.sink.split
    i32 1, label %29
  ]

29:                                               ; preds = %28
  %30 = getelementptr inbounds nuw i8, ptr %1, i64 20
  %31 = load i32, ptr %30, align 4, !tbaa !76
  %32 = icmp eq i32 %31, -1
  br i1 %32, label %popular_quantifier_num.exit48, label %popular_quantifier_num.exit48.thread

33:                                               ; preds = %popular_quantifier_num.exit
  switch i32 %27, label %popular_quantifier_num.exit48.thread [
    i32 0, label %popular_quantifier_num.exit48.sink.split
    i32 1, label %34
  ]

34:                                               ; preds = %33
  %35 = getelementptr inbounds nuw i8, ptr %1, i64 20
  %36 = load i32, ptr %35, align 4, !tbaa !76
  %37 = icmp eq i32 %36, -1
  br i1 %37, label %popular_quantifier_num.exit48, label %popular_quantifier_num.exit48.thread

popular_quantifier_num.exit48.sink.split:         ; preds = %33, %28
  %.sink52 = phi i32 [ 1, %28 ], [ 4, %33 ]
  %.sink = phi i32 [ %27, %28 ], [ 3, %33 ]
  %38 = getelementptr inbounds nuw i8, ptr %1, i64 20
  %39 = load i32, ptr %38, align 4, !tbaa !76
  %switch.selectcmp.i40 = icmp eq i32 %39, -1
  %switch.select.i41 = select i1 %switch.selectcmp.i40, i32 %.sink52, i32 -1
  %switch.selectcmp15.i42 = icmp eq i32 %39, 1
  %switch.select16.i43 = select i1 %switch.selectcmp15.i42, i32 %.sink, i32 %switch.select.i41
  br label %popular_quantifier_num.exit48

popular_quantifier_num.exit48:                    ; preds = %popular_quantifier_num.exit48.sink.split, %29, %34
  %.0.i39 = phi i32 [ 2, %29 ], [ 5, %34 ], [ %switch.select16.i43, %popular_quantifier_num.exit48.sink.split ]
  %40 = icmp slt i32 %.0.i, 0
  %41 = icmp slt i32 %.0.i39, 0
  %or.cond = select i1 %40, i1 true, i1 %41
  br i1 %or.cond, label %popular_quantifier_num.exit48.thread, label %42

42:                                               ; preds = %popular_quantifier_num.exit48
  %43 = zext nneg i32 %.0.i39 to i64
  %44 = zext nneg i32 %.0.i to i64
  %45 = getelementptr [6 x [6 x i32]], ptr @ReduceTypeTable, i64 0, i64 %43, i64 %44
  %46 = load i32, ptr %45, align 4, !tbaa !11
  switch i32 %46, label %69 [
    i32 1, label %47
    i32 2, label %48
    i32 3, label %53
    i32 4, label %58
    i32 5, label %63
    i32 0, label %67
  ]

47:                                               ; preds = %42
  tail call void @llvm.memcpy.p0.p0.i64(ptr noundef nonnull align 8 dereferenceable(56) %0, ptr noundef nonnull align 8 dereferenceable(56) %1, i64 56, i1 false), !tbaa.struct !77
  br label %69

48:                                               ; preds = %42
  %49 = getelementptr inbounds nuw i8, ptr %1, i64 8
  %50 = load ptr, ptr %49, align 8, !tbaa !78
  %51 = getelementptr inbounds nuw i8, ptr %0, i64 8
  store ptr %50, ptr %51, align 8, !tbaa !78
  store i32 0, ptr %5, align 8, !tbaa !75
  %52 = getelementptr inbounds nuw i8, ptr %0, i64 20
  store i32 -1, ptr %52, align 4, !tbaa !76
  store i32 1, ptr %3, align 8, !tbaa !72
  br label %69

53:                                               ; preds = %42
  %54 = getelementptr inbounds nuw i8, ptr %1, i64 8
  %55 = load ptr, ptr %54, align 8, !tbaa !78
  %56 = getelementptr inbounds nuw i8, ptr %0, i64 8
  store ptr %55, ptr %56, align 8, !tbaa !78
  store i32 0, ptr %5, align 8, !tbaa !75
  %57 = getelementptr inbounds nuw i8, ptr %0, i64 20
  store i32 -1, ptr %57, align 4, !tbaa !76
  store i32 0, ptr %3, align 8, !tbaa !72
  br label %69

58:                                               ; preds = %42
  %59 = getelementptr inbounds nuw i8, ptr %1, i64 8
  %60 = load ptr, ptr %59, align 8, !tbaa !78
  %61 = getelementptr inbounds nuw i8, ptr %0, i64 8
  store ptr %60, ptr %61, align 8, !tbaa !78
  store i32 0, ptr %5, align 8, !tbaa !75
  %62 = getelementptr inbounds nuw i8, ptr %0, i64 20
  store i32 1, ptr %62, align 4, !tbaa !76
  store i32 0, ptr %3, align 8, !tbaa !72
  br label %69

63:                                               ; preds = %42
  %64 = getelementptr inbounds nuw i8, ptr %0, i64 8
  store ptr %1, ptr %64, align 8, !tbaa !78
  store i32 0, ptr %5, align 8, !tbaa !75
  %65 = getelementptr inbounds nuw i8, ptr %0, i64 20
  store i32 1, ptr %65, align 4, !tbaa !76
  store i32 0, ptr %3, align 8, !tbaa !72
  store i32 1, ptr %26, align 8, !tbaa !75
  %66 = getelementptr inbounds nuw i8, ptr %1, i64 20
  store i32 -1, ptr %66, align 4, !tbaa !76
  store i32 1, ptr %24, align 8, !tbaa !72
  br label %popular_quantifier_num.exit48.thread

67:                                               ; preds = %42
  %68 = getelementptr inbounds nuw i8, ptr %0, i64 8
  store ptr %1, ptr %68, align 8, !tbaa !78
  br label %popular_quantifier_num.exit48.thread

69:                                               ; preds = %58, %53, %48, %47, %42
  %70 = getelementptr inbounds nuw i8, ptr %1, i64 8
  store ptr null, ptr %70, align 8, !tbaa !78
  tail call void @onig_node_free(ptr noundef nonnull %1)
  br label %popular_quantifier_num.exit48.thread

popular_quantifier_num.exit48.thread:             ; preds = %34, %33, %29, %28, %popular_quantifier_num.exit48, %69, %67, %63
  ret void
}